(lp0
(dp1
S'links'
p2
(lp3
V/j/john+legend/a+million_21077627.html
p4
aV/j/john+legend/again_20358503.html
p5
aV/j/john+legend/aim+high_21085507.html
p6
aV/j/john+legend/all+of+me_21065303.html
p7
aV/j/john+legend/alright_10152521.html
p8
aV/j/john+legend/angel_21065310.html
p9
aV/j/john+legend/another+again_20358533.html
p10
aV/j/john+legend/around+my+way_20626840.html
p11
aV/j/john+legend/asylum_21085505.html
p12
aV/j/john+legend/bliss_21042623.html
p13
aV/j/john+legend/burning+down+the+house_20809147.html
p14
aV/j/john+legend/cant+be+my+lover_20770759.html
p15
aV/j/john+legend/caught+up_21035852.html
p16
aV/j/john+legend/chasing+your+love_20993092.html
p17
aV/j/john+legend/coming+home_20358543.html
p18
aV/j/john+legend/cross+the+line_20763858.html
p19
aV/j/john+legend/dance+the+pain+away_21061095.html
p20
aV/j/john+legend/dare+to+dream_20679030.html
p21
aV/j/john+legend/do+what+i+gotta+do_10152529.html
p22
aV/j/john+legend/dont+let+me+be+misunderstood_20185285.html
p23
aV/j/john+legend/dont+you+worry+bout+a+thing_20679034.html
p24
aV/j/john+legend/dreams_21085503.html
p25
aV/j/john+legend/each+day+gets+better_20358473.html
p26
aV/j/john+legend/everybody+knows_20763856.html
p27
aV/j/john+legend/floating+away_20771497.html
p28
aV/j/john+legend/for+the+first+time_21085508.html
p29
aV/j/john+legend/glory_21091529.html
p30
aV/j/john+legend/good+morning_20763862.html
p31
aV/j/john+legend/green+light_20748618.html
p32
aV/j/john+legend/hang+on+in+there_20889768.html
p33
aV/j/john+legend/heaven_20358443.html
p34
aV/j/john+legend/hey+girl_20997663.html
p35
aV/j/john+legend/hold+on+longer_21065304.html
p36
aV/j/john+legend/i+can+change_20458886.html
p37
aV/j/john+legend/i+love+you+love_20763863.html
p38
aV/j/john+legend/i+wish+i+knew+how+it+would+feel+to+be+free_20891350.html
p39
aV/j/john+legend/if+this+world+were+mine+feat+imani+uzuri_20201905.html
p40
aV/j/john+legend/if+youre+out+there_20756169.html
p41
aV/j/john+legend/it+dont+have+to+change_10152527.html
p42
aV/j/john+legend/its+over_20763855.html
p43
aV/j/john+legend/king+queen_20679051.html
p44
aV/j/john+legend/lets+get+lifted+again_10152520.html
p45
aV/j/john+legend/lifted_20809316.html
p46
aV/j/john+legend/live+it+up_10152528.html
p47
aV/j/john+legend/love+in+the+future_21085500.html
p48
aV/j/john+legend/love+me+now_21111368.html
p49
aV/j/john+legend/love+the+way+it+should+be_20967578.html
p50
aV/j/john+legend/made+to+love_21063800.html
p51
aV/j/john+legend/maxine_20358513.html
p52
aV/j/john+legend/maxines+interlude_20574630.html
p53
aV/j/john+legend/money+blown_20492681.html
p54
aV/j/john+legend/motherless+child_20492680.html
p55
aV/j/john+legend/must+be+the+way_20492679.html
p56
aV/j/john+legend/my+imagination_21099312.html
p57
aV/j/john+legend/no+other+love_20763859.html
p58
aV/j/john+legend/number+one_10152523.html
p59
aV/j/john+legend/open+your+eyes_21065302.html
p60
aV/j/john+legend/ordinary+people_10152518.html
p61
aV/j/john+legend/out+of+sight_20626839.html
p62
aV/j/john+legend/pda+we+just+dont+care_20358483.html
p63
asS'artist'
p64
S'john+legend'
p65
sa(dp66
g2
(lp67
V/j/justin+bieber/a+very+bieber+christmas_20898752.html
p68
aV/j/justin+bieber/all+around+the+world_21017802.html
p69
aV/j/justin+bieber/all+bad_21071754.html
p70
aV/j/justin+bieber/all+i+want+for+christmas_20992955.html
p71
aV/j/justin+bieber/all+i+want+for+christmas+is+you_20985616.html
p72
aV/j/justin+bieber/all+i+want+is+you_20985618.html
p73
aV/j/justin+bieber/all+in+it_21104170.html
p74
aV/j/justin+bieber/all+that+matters_21070017.html
p75
aV/j/justin+bieber/alone_21072517.html
p76
aV/j/justin+bieber/as+long+as+you+love+me_21021843.html
p77
aV/j/justin+bieber/baby_20865507.html
p78
aV/j/justin+bieber/baby+lady_20467491.html
p79
aV/j/justin+bieber/babys+love+story+in+my+head_20878728.html
p80
aV/j/justin+bieber/backpack_21024337.html
p81
aV/j/justin+bieber/bad+day_21071352.html
p82
aV/j/justin+bieber/be+alright_20994871.html
p83
aV/j/justin+bieber/beauty+and+a+beat_21019768.html
p84
aV/j/justin+bieber/been+you_21104166.html
p85
aV/j/justin+bieber/believe_20913220.html
p86
aV/j/justin+bieber/bigger_20857198.html
p87
aV/j/justin+bieber/born+to+be+somebody_20902509.html
p88
aV/j/justin+bieber/boyfriend_21018681.html
p89
aV/j/justin+bieber/broken_21078393.html
p90
aV/j/justin+bieber/california+cruisin_21099716.html
p91
aV/j/justin+bieber/cant+get+you+off+my+mind_20893834.html
p92
aV/j/justin+bieber/cant+live+without+you_20885643.html
p93
aV/j/justin+bieber/catching+feelings_21016680.html
p94
aV/j/justin+bieber/change+me_21073032.html
p95
aV/j/justin+bieber/children_21104164.html
p96
aV/j/justin+bieber/christmas+eve_20985619.html
p97
aV/j/justin+bieber/christmas+is+dead_21109573.html
p98
aV/j/justin+bieber/christmas+love_20985615.html
p99
aV/j/justin+bieber/come+home+to+me_20912257.html
p100
aV/j/justin+bieber/common+denominator_20774306.html
p101
aV/j/justin+bieber/confident_21073268.html
p102
aV/j/justin+bieber/cry+me+a+heartless+swag+on+the+river+one+time_20885644.html
p103
aV/j/justin+bieber/die+in+your+arms_21017801.html
p104
aV/j/justin+bieber/digital_20909389.html
p105
aV/j/justin+bieber/down+to+earth_20861740.html
p106
aV/j/justin+bieber/dr+bieber_20902739.html
p107
aV/j/justin+bieber/drummer+boy_20985617.html
p108
aV/j/justin+bieber/dwyck_20989346.html
p109
aV/j/justin+bieber/eenie+meenie_20874554.html
p110
aV/j/justin+bieber/fa+la+la_20987586.html
p111
aV/j/justin+bieber/fairytale_21023040.html
p112
aV/j/justin+bieber/fall_21019767.html
p113
aV/j/justin+bieber/favorite+girl_20847635.html
p114
aV/j/justin+bieber/first+dance+ftusher_20861986.html
p115
aV/j/justin+bieber/flatline_21074124.html
p116
aV/j/justin+bieber/foreign+remix_21085332.html
p117
aV/j/justin+bieber/forever_20993617.html
p118
aV/j/justin+bieber/gas+pedal+remix_21074333.html
p119
aV/j/justin+bieber/get+used+to+me_21104167.html
p120
aV/j/justin+bieber/girlfriend_20898018.html
p121
aV/j/justin+bieber/go+the+distance_20807504.html
p122
aV/j/justin+bieber/happy+new+year_20995947.html
p123
aV/j/justin+bieber/hard+2+face+reality_21082156.html
p124
aV/j/justin+bieber/heartache_20899295.html
p125
aV/j/justin+bieber/heartbreaker_21063299.html
p126
aV/j/justin+bieber/hit+the+ground_21104172.html
p127
asg64
S'justin+bieber'
p128
sa(dp129
g2
(lp130
V/j/justin+bieber/
p131
aV/j/justin+timberlake/a+special+christmas+box_20574271.html
p132
aV/j/justin+timberlake/aint+nothing+like+the+real+thing_20757666.html
p133
aV/j/justin+timberlake/am+i+worthy+of_20574270.html
p134
aV/j/justin+timberlake/amnesia_21067182.html
p135
aV/j/justin+timberlake/another+song+all+over+again_20373493.html
p136
aV/j/justin+timberlake/bank+robber_21012739.html
p137
aV/j/justin+timberlake/beach+party_20574269.html
p138
aV/j/justin+timberlake/better+not+together_20785232.html
p139
aV/j/justin+timberlake/bigger+than+the+world_20778405.html
p140
aV/j/justin+timberlake/blindness_21069145.html
p141
aV/j/justin+timberlake/blue+ocean+floor_21056551.html
p142
aV/j/justin+timberlake/body+count_21057129.html
p143
aV/j/justin+timberlake/boutique+in+heaven_20539555.html
p144
aV/j/justin+timberlake/breath_20574267.html
p145
aV/j/justin+timberlake/cabaret_21067177.html
p146
aV/j/justin+timberlake/cant+stop+the+feeling_21108446.html
p147
aV/j/justin+timberlake/carry+out_20864939.html
p148
aV/j/justin+timberlake/chop+me+up_20373443.html
p149
aV/j/justin+timberlake/confused_20669326.html
p150
aV/j/justin+timberlake/cry+me+a+river_20076751.html
p151
aV/j/justin+timberlake/damn+girl_20373453.html
p152
aV/j/justin+timberlake/dead+and+gone_20759021.html
p153
aV/j/justin+timberlake/dont+hold+the+wall_21056545.html
p154
aV/j/justin+timberlake/dress+on_21057130.html
p155
aV/j/justin+timberlake/drink+you+away_21067180.html
p156
aV/j/justin+timberlake/electric+lady_21069144.html
p157
aV/j/justin+timberlake/five+hundred+mile_21064538.html
p158
aV/j/justin+timberlake/floatin_20711587.html
p159
aV/j/justin+timberlake/follow+my+lead_20834987.html
p160
aV/j/justin+timberlake/futuresex+lovesound_20373383.html
p161
aV/j/justin+timberlake/gimme+what+i+dont+know_21067175.html
p162
aV/j/justin+timberlake/girlfriend_20491492.html
p163
aV/j/justin+timberlake/give+it+to+me_20728400.html
p164
aV/j/justin+timberlake/gone_20702732.html
p165
aV/j/justin+timberlake/good+foot_10155420.html
p166
aV/j/justin+timberlake/hallelujah_20869243.html
p167
aV/j/justin+timberlake/hootnanny_20491491.html
p168
aV/j/justin+timberlake/i+have+a+crush+on+you_20625170.html
p169
aV/j/justin+timberlake/i+love+a+girl+whos+name+starts+with+k_20625169.html
p170
aV/j/justin+timberlake/i+love+you_20491490.html
p171
aV/j/justin+timberlake/im+a+hex+girl_20625167.html
p172
aV/j/justin+timberlake/im+lovin+it_10155435.html
p173
aV/j/justin+timberlake/im+ready_21054378.html
p174
aV/j/justin+timberlake/im+sorry_20625166.html
p175
aV/j/justin+timberlake/last+night_20076752.html
p176
aV/j/justin+timberlake/leaving+on+a+jetplane_20625165.html
p177
aV/j/justin+timberlake/let+the+groove+get+in_21056549.html
p178
aV/j/justin+timberlake/lets+make+love_20625164.html
p179
aV/j/justin+timberlake/lets+take+a+ride_20076753.html
p180
aV/j/justin+timberlake/like+i+love+you_20076754.html
p181
aV/j/justin+timberlake/little+pusher+lover+girl_21056238.html
p182
aV/j/justin+timberlake/losing+my+way_20373483.html
p183
aV/j/justin+timberlake/love+stoned_20539553.html
p184
aV/j/justin+timberlake/magic_20769024.html
p185
aV/j/justin+timberlake/mirrors_21056550.html
p186
aV/j/justin+timberlake/murder_21067179.html
p187
aV/j/justin+timberlake/my+eyes+adored+you_20669395.html
p188
aV/j/justin+timberlake/my+love_20373413.html
p189
aV/j/justin+timberlake/never+again_20076755.html
p190
asg64
S'justin+timberlake'
p191
sa(dp192
g2
(lp193
V/a/adele/
p194
aV/a/adele/all+i+ask_21105101.html
p195
aV/a/adele/best+for+last_20730072.html
p196
aV/a/adele/black+and+gold_20767598.html
p197
aV/a/adele/cant+let+go_21105103.html
p198
aV/a/adele/chasing+pavements_20663876.html
p199
aV/a/adele/cold+shoulder_20776327.html
p200
aV/a/adele/crazy+for+you_20830095.html
p201
aV/a/adele/daydreamer_20730061.html
p202
aV/a/adele/dont+you+remember_20899768.html
p203
aV/a/adele/fiasco_20910340.html
p204
aV/a/adele/first+love_20731501.html
p205
aV/a/adele/for+an+eternity_21052092.html
p206
aV/a/adele/he+wont+go_20901455.html
p207
aV/a/adele/hello_21103519.html
p208
aV/a/adele/hiding+my+heart_20913875.html
p209
aV/a/adele/hometown+glory_20730060.html
p210
aV/a/adele/i+cant+make+you+love+me_20990480.html
p211
aV/a/adele/i+dare+you+to+love+me_20977881.html
p212
aV/a/adele/i+found+a+boy_20901457.html
p213
aV/a/adele/i+miss+you_21105095.html
p214
aV/a/adele/if+it+hadnt+been+for+love_20910341.html
p215
aV/a/adele/ill+be+waiting_20901456.html
p216
aV/a/adele/last+nite_20734133.html
p217
aV/a/adele/lay+me+down_21105104.html
p218
aV/a/adele/love+in+the+dark_21105100.html
p219
aV/a/adele/lovesong_20901360.html
p220
aV/a/adele/make+you+feel+my+love_20730775.html
p221
aV/a/adele/many+shades+of+black_20767599.html
p222
aV/a/adele/melt+my+heart+to+stone_20730059.html
p223
aV/a/adele/million+years+ago_21104349.html
p224
aV/a/adele/my+same_20729986.html
p225
aV/a/adele/need+you+know_20913874.html
p226
aV/a/adele/never+gonna+leave+you_21087331.html
p227
aV/a/adele/never+tear+us+apart_21082930.html
p228
aV/a/adele/not+drunk+enough_20900271.html
p229
aV/a/adele/now+and+then_20746846.html
p230
aV/a/adele/one+and+only_20901264.html
p231
aV/a/adele/promise+this_21051484.html
p232
aV/a/adele/remedy_21105097.html
p233
aV/a/adele/right+as+rain_20731503.html
p234
aV/a/adele/river+lea_21105099.html
p235
aV/a/adele/rolling+in+the+deep_20894941.html
p236
aV/a/adele/rumour+has+it_20900280.html
p237
aV/a/adele/send+my+love+to_21104354.html
p238
aV/a/adele/send+my+love+to+your+new+lover_21105094.html
p239
aV/a/adele/set+fire+to+the+rain_20901407.html
p240
aV/a/adele/skyfall_21048182.html
p241
aV/a/adele/someone+like+you_20895042.html
p242
aV/a/adele/steady+as+she+goes_20746845.html
p243
aV/a/adele/sweetest+devotion_21105102.html
p244
aV/a/adele/take+it+all_20898259.html
p245
aV/a/adele/thats+it+i+quit+im+movin+on_20737584.html
p246
aV/a/adele/think+that+i+get+told+the+court_21101108.html
p247
aV/a/adele/tired_20729865.html
p248
aV/a/adele/turning+tables_20901454.html
p249
aV/a/adele/water+under+the+bridge_21105098.html
p250
aV/a/adele/when+we+were+young_21105096.html
p251
aV/a/adele/why+do+you+love+me_21105105.html
p252
aV/a/adele/youll+never+see+me+again_21087163.html
p253
asg64
S'adele'
p254
sa(dp255
g2
(lp256
V/s/selena+gomez/
p257
aV/s/selena+gomez/a+year+without+rain_20886278.html
p258
aV/s/selena+gomez/as+a+blonde_20852985.html
p259
aV/s/selena+gomez/bang+a+drum_20756472.html
p260
aV/s/selena+gomez/bang+bang+bang_20914120.html
p261
aV/s/selena+gomez/beat_21063167.html
p262
aV/s/selena+gomez/birthday_21063163.html
p263
aV/s/selena+gomez/body+heat_21103171.html
p264
aV/s/selena+gomez/brain+zapped_20756471.html
p265
aV/s/selena+gomez/camouflage_21103158.html
p266
aV/s/selena+gomez/cologne_21103177.html
p267
aV/s/selena+gomez/come+and+get+it_21058899.html
p268
aV/s/selena+gomez/congratulations+to+me_20987127.html
p269
aV/s/selena+gomez/cruella+de+vil_20733151.html
p270
aV/s/selena+gomez/crush_20852376.html
p271
aV/s/selena+gomez/dancing+crazy_20979817.html
p272
aV/s/selena+gomez/dices_20914775.html
p273
aV/s/selena+gomez/disappear_20844626.html
p274
aV/s/selena+gomez/do+it_21090828.html
p275
aV/s/selena+gomez/do+you+feel+it_21063886.html
p276
aV/s/selena+gomez/falling+down_20847736.html
p277
aV/s/selena+gomez/fantasma+de+amor_20916079.html
p278
aV/s/selena+gomez/feel+me_21108469.html
p279
aV/s/selena+gomez/fly+to+your+heart_20762615.html
p280
aV/s/selena+gomez/forget+forever_21063165.html
p281
aV/s/selena+gomez/ghost+of+you_20888528.html
p282
aV/s/selena+gomez/good+for+you_21099939.html
p283
aV/s/selena+gomez/hands+to+myself_21103120.html
p284
aV/s/selena+gomez/hat+rap_20709519.html
p285
aV/s/selena+gomez/headfirst_20825790.html
p286
aV/s/selena+gomez/hit+the+lights_20915397.html
p287
aV/s/selena+gomez/hold+on_21084618.html
p288
aV/s/selena+gomez/hot+and+cold_20906379.html
p289
aV/s/selena+gomez/hot+n+cold_20891695.html
p290
aV/s/selena+gomez/i+dont+miss+you+at+all_20852982.html
p291
aV/s/selena+gomez/i+got+u_20852987.html
p292
aV/s/selena+gomez/i+like+it+that+way_21088508.html
p293
aV/s/selena+gomez/i+promise+you_20852984.html
p294
aV/s/selena+gomez/i+want+it+that+way_21065666.html
p295
aV/s/selena+gomez/i+wont+apologize_20852983.html
p296
aV/s/selena+gomez/if+cupid+had+a+heart_20709528.html
p297
aV/s/selena+gomez/intuition_20889463.html
p298
aV/s/selena+gomez/just+in+love_21088511.html
p299
aV/s/selena+gomez/kill+em+with+kindeness_21111446.html
p300
aV/s/selena+gomez/kill+em+with+kindness_21103119.html
p301
aV/s/selena+gomez/kiss+and+tell_20852988.html
p302
aV/s/selena+gomez/like+a+champion_21063164.html
p303
aV/s/selena+gomez/live+like+theres+no+tomorrow_20876417.html
p304
aV/s/selena+gomez/love+will+remember_21058651.html
p305
aV/s/selena+gomez/love+you+like+a+love+song_20914683.html
p306
aV/s/selena+gomez/lover+in+me_21065665.html
p307
aV/s/selena+gomez/magic_20843674.html
p308
aV/s/selena+gomez/magical_20844627.html
p309
aV/s/selena+gomez/make+it+happen_20774549.html
p310
aV/s/selena+gomez/mas_21102266.html
p311
aV/s/selena+gomez/me+my+girls_21103173.html
p312
aV/s/selena+gomez/me+the+rhythm_21102922.html
p313
aV/s/selena+gomez/middle+of+nowhere_20915697.html
p314
aV/s/selena+gomez/more_20852989.html
p315
aV/s/selena+gomez/music+feels+better_21063171.html
p316
asg64
S'selena+gomez'
p317
sa(dp318
g2
(lp319
V/t/taylor+swift/
p320
aV/t/taylor+swift/22_21048511.html
p321
aV/t/taylor+swift/a+perfectly+good+heart_20658058.html
p322
aV/t/taylor+swift/a+place+in+this+world_20359703.html
p323
aV/t/taylor+swift/aint+nothin+about+you_20900583.html
p324
aV/t/taylor+swift/all+too+well_21048507.html
p325
aV/t/taylor+swift/all+you+had+to+do+was+stay_21089670.html
p326
aV/t/taylor+swift/am+i+ready+for+love_20905932.html
p327
aV/t/taylor+swift/american+boy_20849041.html
p328
aV/t/taylor+swift/american+girl_20869822.html
p329
aV/t/taylor+swift/baby+dont+break+my+heart+slow_20788902.html
p330
aV/t/taylor+swift/back+to+december_20888181.html
p331
aV/t/taylor+swift/bad+blood_21089672.html
p332
aV/t/taylor+swift/bad+blood+remix_21098847.html
p333
aV/t/taylor+swift/beautiful+eyes_20749428.html
p334
aV/t/taylor+swift/before+the+storm+featuring+nick+jonas_20749432.html
p335
aV/t/taylor+swift/begin+again_21047610.html
p336
aV/t/taylor+swift/being+with+my+baby_20892941.html
p337
aV/t/taylor+swift/bette+davis+eyes_21069070.html
p338
aV/t/taylor+swift/better+than+revenge_20890713.html
p339
aV/t/taylor+swift/blank+space_21089931.html
p340
aV/t/taylor+swift/both+of+us_21018688.html
p341
aV/t/taylor+swift/breathe_20763489.html
p342
aV/t/taylor+swift/breathless_20892334.html
p343
aV/t/taylor+swift/brought+up+that+way_20916035.html
p344
aV/t/taylor+swift/busted_20892939.html
p345
aV/t/taylor+swift/by+the+way_21015091.html
p346
aV/t/taylor+swift/can+i+go+with+you_20749430.html
p347
aV/t/taylor+swift/change_20749429.html
p348
aV/t/taylor+swift/christmas+must+be+something+more_20657142.html
p349
aV/t/taylor+swift/christmases+when+you+were+mine_20658634.html
p350
aV/t/taylor+swift/clean_21089669.html
p351
aV/t/taylor+swift/closest+to+a+cowboy_21081710.html
p352
aV/t/taylor+swift/cold+as+you_20359713.html
p353
aV/t/taylor+swift/come+back+be+here_21051327.html
p354
aV/t/taylor+swift/come+in+with+the+rain_20441663.html
p355
aV/t/taylor+swift/crazier_20783496.html
p356
aV/t/taylor+swift/daddy_20898030.html
p357
aV/t/taylor+swift/dark+blue+tennessee_20916033.html
p358
aV/t/taylor+swift/dear+digdan_20898026.html
p359
aV/t/taylor+swift/dear+john_20892108.html
p360
aV/t/taylor+swift/diary+of+me_20915838.html
p361
aV/t/taylor+swift/didnt+they_21014886.html
p362
aV/t/taylor+swift/disappointed+of+you_21079971.html
p363
aV/t/taylor+swift/dont+tell+me+you+want+to+when+i+dont+want+to+aymore_20916034.html
p364
aV/t/taylor+swift/down+to+the+mountain_21096027.html
p365
aV/t/taylor+swift/drops+of+jupiter_20991943.html
p366
aV/t/taylor+swift/electric+barnyard+jingle_20789850.html
p367
aV/t/taylor+swift/enchanted_20892548.html
p368
aV/t/taylor+swift/everything+has+changed_21063437.html
p369
aV/t/taylor+swift/eyes+open_21010191.html
p370
aV/t/taylor+swift/eyes+wide+open_21010150.html
p371
aV/t/taylor+swift/fall+back+on+you_20916037.html
p372
aV/t/taylor+swift/fall+into+me_20753777.html
p373
aV/t/taylor+swift/fearless_20731436.html
p374
aV/t/taylor+swift/fifteen_20766168.html
p375
aV/t/taylor+swift/find+your+way+back+home+on+the+fourth+of+july_21003221.html
p376
aV/t/taylor+swift/foever+and+always_21106825.html
p377
aV/t/taylor+swift/forever+and+always_20766343.html
p378
aV/t/taylor+swift/girl+at+home_21048500.html
p379
asg64
S'taylor+swift'
p380
sa(dp381
g2
(lp382
V/e/ed+sheeran/
p383
aV/e/ed+sheeran/a+team_20983411.html
p384
aV/e/ed+sheeran/afire+love_21084845.html
p385
aV/e/ed+sheeran/ag+smaoineamh+os+ard_21105321.html
p386
aV/e/ed+sheeran/alfire+love_21095929.html
p387
aV/e/ed+sheeran/all+of+the+stars_21082931.html
p388
aV/e/ed+sheeran/autumn+leaves_21019237.html
p389
aV/e/ed+sheeran/be+like+you_21106363.html
p390
aV/e/ed+sheeran/be+my+husband_21064406.html
p391
aV/e/ed+sheeran/blind+faith_21029905.html
p392
aV/e/ed+sheeran/bloodstream_21084969.html
p393
aV/e/ed+sheeran/candle+in+the+wind_21080442.html
p394
aV/e/ed+sheeran/cold+coffee_20993428.html
p395
aV/e/ed+sheeran/dont_21081306.html
p396
aV/e/ed+sheeran/drunk_20983412.html
p397
aV/e/ed+sheeran/english+rose_21099622.html
p398
aV/e/ed+sheeran/even+my+dad+does+sometimes_21085123.html
p399
aV/e/ed+sheeran/everything+has+changed_21048640.html
p400
aV/e/ed+sheeran/everything+you+are_21087131.html
p401
aV/e/ed+sheeran/faces_21051721.html
p402
aV/e/ed+sheeran/fall_21010158.html
p403
aV/e/ed+sheeran/fire+alarms_21106361.html
p404
aV/e/ed+sheeran/firefly_21026030.html
p405
aV/e/ed+sheeran/friends_21084208.html
p406
aV/e/ed+sheeran/give+me+love_20983413.html
p407
aV/e/ed+sheeran/gold+rush_20997814.html
p408
aV/e/ed+sheeran/goodbye+to+you_21051724.html
p409
aV/e/ed+sheeran/grade+8_20909565.html
p410
aV/e/ed+sheeran/gravity_21029876.html
p411
aV/e/ed+sheeran/heaven_21029894.html
p412
aV/e/ed+sheeran/homeless_21106359.html
p413
aV/e/ed+sheeran/i+never+fell_21066851.html
p414
aV/e/ed+sheeran/i+see+fire_21071421.html
p415
aV/e/ed+sheeran/im+a+mess_21085120.html
p416
aV/e/ed+sheeran/kiss+me_20983414.html
p417
aV/e/ed+sheeran/lego+house_20983415.html
p418
aV/e/ed+sheeran/let+it+out_21106357.html
p419
aV/e/ed+sheeran/little+bird_20990406.html
p420
aV/e/ed+sheeran/little+lady_20902816.html
p421
aV/e/ed+sheeran/london+bridge_21005483.html
p422
aV/e/ed+sheeran/make+it+rain_21091360.html
p423
aV/e/ed+sheeran/miss+you_21010281.html
p424
aV/e/ed+sheeran/new+york_21071354.html
p425
aV/e/ed+sheeran/nina_21085121.html
p426
aV/e/ed+sheeran/one_21082510.html
p427
aV/e/ed+sheeran/one+night_21102297.html
p428
aV/e/ed+sheeran/paralyzed_20989927.html
p429
aV/e/ed+sheeran/parting+glass_21031570.html
p430
aV/e/ed+sheeran/photograph_21058341.html
p431
aV/e/ed+sheeran/pony_21051720.html
p432
aV/e/ed+sheeran/runaway_21085122.html
p433
aV/e/ed+sheeran/scars_21084027.html
p434
aV/e/ed+sheeran/she_21035048.html
p435
aV/e/ed+sheeran/shirtsleeves_21085124.html
p436
aV/e/ed+sheeran/sing_21080761.html
p437
aV/e/ed+sheeran/small+bump_20983417.html
p438
aV/e/ed+sheeran/sofa_21005592.html
p439
aV/e/ed+sheeran/sunburn_20912443.html
p440
aV/e/ed+sheeran/sweet+mary+jane_21099456.html
p441
aV/e/ed+sheeran/take+it+back_21080114.html
p442
asg64
S'ed+sheeran'
p443
sa(dp444
g2
(lp445
V/b/beyonce/
p446
aV/b/beyonce/03+bonnie+clyde_20529111.html
p447
aV/b/beyonce/11_20912826.html
p448
aV/b/beyonce/632+5792_20667979.html
p449
aV/b/beyonce/6+inch_21108296.html
p450
aV/b/beyonce/711_21090776.html
p451
aV/b/beyonce/a+girl+with+no+name_20911009.html
p452
aV/b/beyonce/a+woman+like+me_20529093.html
p453
aV/b/beyonce/after+all+is+said+and+done+feat+marc+nelson_20202291.html
p454
aV/b/beyonce/aint+nothing+like+the+real+thing_20757647.html
p455
aV/b/beyonce/all+i+could+do+was+cry_20767341.html
p456
aV/b/beyonce/all+night_21108302.html
p457
aV/b/beyonce/amor+gitano_20407423.html
p458
aV/b/beyonce/angel_20834548.html
p459
aV/b/beyonce/at+last_20765603.html
p460
aV/b/beyonce/ave+maria_20765575.html
p461
aV/b/beyonce/baby+boy_10031546.html
p462
aV/b/beyonce/baby+youre+the+only+man_20885878.html
p463
aV/b/beyonce/back+to+black_21060155.html
p464
aV/b/beyonce/back+up_20837031.html
p465
aV/b/beyonce/be+with+you_10031551.html
p466
aV/b/beyonce/beautiful+liar_20529094.html
p467
aV/b/beyonce/bello+embustero_20780285.html
p468
aV/b/beyonce/best+thing+i+never+had_20913597.html
p469
aV/b/beyonce/beyonce+interlude_20529112.html
p470
aV/b/beyonce/bienvenue+ftiam_20594819.html
p471
aV/b/beyonce/black+culture_20885877.html
p472
aV/b/beyonce/blow_21073514.html
p473
aV/b/beyonce/blue_21073516.html
p474
aV/b/beyonce/bow+down_21059071.html
p475
aV/b/beyonce/broken+hearted+girl_20765487.html
p476
aV/b/beyonce/brown+eyes_20542898.html
p477
aV/b/beyonce/bye+bitch_21096465.html
p478
aV/b/beyonce/cant+help+myself_20543498.html
p479
aV/b/beyonce/cards+never+lie+feat+wyclef+jean+rah+digga_20175301.html
p480
aV/b/beyonce/carousel_20915496.html
p481
aV/b/beyonce/check+on+it_20534709.html
p482
aV/b/beyonce/control_20853258.html
p483
aV/b/beyonce/countdown_20914214.html
p484
aV/b/beyonce/crazy+feelings+ft+missy+elliot_20585560.html
p485
aV/b/beyonce/crazy+in+love_10031538.html
p486
aV/b/beyonce/creole_20541576.html
p487
aV/b/beyonce/daddy_10031585.html
p488
aV/b/beyonce/daddy+lessons_21108297.html
p489
aV/b/beyonce/dance_21058596.html
p490
aV/b/beyonce/dance+for+you_20915693.html
p491
aV/b/beyonce/dangerously+in+love_20541696.html
p492
aV/b/beyonce/deja+vu_20832429.html
p493
aV/b/beyonce/diamonds_20991246.html
p494
aV/b/beyonce/die+with+you_21097335.html
p495
aV/b/beyonce/disappear_20765574.html
p496
aV/b/beyonce/diva_20765596.html
p497
aV/b/beyonce/dont+hurt+yourself_21108294.html
p498
aV/b/beyonce/dreaming_20916277.html
p499
aV/b/beyonce/drunk+in+love_21073512.html
p500
aV/b/beyonce/ego_20766110.html
p501
aV/b/beyonce/encore+for+the+fans_20541577.html
p502
aV/b/beyonce/end+of+time_20914213.html
p503
aV/b/beyonce/everything+i+do_20539976.html
p504
aV/b/beyonce/fever_20202648.html
p505
asg64
S'beyonce'
p506
sa(dp507
g2
(lp508
V/e/ellie+goulding/a+day+at+a+time_20990409.html
p509
aV/e/ellie+goulding/aftertaste_21104117.html
p510
aV/e/ellie+goulding/all+i+want_21081220.html
p511
aV/e/ellie+goulding/animal_20899759.html
p512
aV/e/ellie+goulding/anything+could+happen_21032098.html
p513
aV/e/ellie+goulding/army_21104116.html
p514
aV/e/ellie+goulding/around+u_21104119.html
p515
aV/e/ellie+goulding/atlantis_21047078.html
p516
aV/e/ellie+goulding/beating+heart_21078544.html
p517
aV/e/ellie+goulding/believe+me_20899760.html
p518
aV/e/ellie+goulding/bittersweet_21048545.html
p519
aV/e/ellie+goulding/black+gold_20896392.html
p520
aV/e/ellie+goulding/burn_21064022.html
p521
aV/e/ellie+goulding/codes_21104120.html
p522
aV/e/ellie+goulding/dead+in+the+water_21047079.html
p523
aV/e/ellie+goulding/devotion_21104126.html
p524
aV/e/ellie+goulding/dont+need+nobody_21104123.html
p525
aV/e/ellie+goulding/dont+panic_21104124.html
p526
aV/e/ellie+goulding/dont+say+a+word_21047071.html
p527
aV/e/ellie+goulding/eraser_20915179.html
p528
aV/e/ellie+goulding/every+time+you+go_20874435.html
p529
aV/e/ellie+goulding/explosions_21033992.html
p530
aV/e/ellie+goulding/father_21053613.html
p531
aV/e/ellie+goulding/fighter+plane_20896394.html
p532
aV/e/ellie+goulding/figure+8_21047075.html
p533
aV/e/ellie+goulding/flashlight_21065223.html
p534
aV/e/ellie+goulding/fly_20900030.html
p535
aV/e/ellie+goulding/four+love+songs_20896390.html
p536
aV/e/ellie+goulding/goodness+gracious_21065220.html
p537
aV/e/ellie+goulding/guns+and+horses_20868237.html
p538
aV/e/ellie+goulding/halcyon_21047074.html
p539
aV/e/ellie+goulding/hanging+on_21027532.html
p540
aV/e/ellie+goulding/have+yourself+a+merry+little+christmas_21064724.html
p541
aV/e/ellie+goulding/heal_21104132.html
p542
aV/e/ellie+goulding/hearts+without+chains_21067018.html
p543
aV/e/ellie+goulding/heres+to+us_21106891.html
p544
aV/e/ellie+goulding/high+for+this_21042487.html
p545
aV/e/ellie+goulding/holding+on+for+life_21104121.html
p546
aV/e/ellie+goulding/home_20899758.html
p547
aV/e/ellie+goulding/how+long+will+i+love+you_21065224.html
p548
aV/e/ellie+goulding/human_20899761.html
p549
aV/e/ellie+goulding/i+do+what+i+love_21104129.html
p550
aV/e/ellie+goulding/i+know+you+care_21047077.html
p551
aV/e/ellie+goulding/i+need+your+love_21048321.html
p552
aV/e/ellie+goulding/ill+hold+my+breath_20874434.html
p553
aV/e/ellie+goulding/joy_21047076.html
p554
aV/e/ellie+goulding/just+in+case_21105446.html
p555
aV/e/ellie+goulding/keep+on+dancin_21104118.html
p556
aV/e/ellie+goulding/let+it+die_21104133.html
p557
aV/e/ellie+goulding/life+round+here_21077075.html
p558
aV/e/ellie+goulding/lights_20874433.html
p559
aV/e/ellie+goulding/little+dreams_20896391.html
p560
aV/e/ellie+goulding/lost+found_21103643.html
p561
aV/e/ellie+goulding/love+me+like+you+do_21093184.html
p562
aV/e/ellie+goulding/midas+touch_21065226.html
p563
aV/e/ellie+goulding/mirror_21069555.html
p564
aV/e/ellie+goulding/mosaic_20911367.html
p565
aV/e/ellie+goulding/my+blood_21047072.html
p566
aV/e/ellie+goulding/nobodys+crying_21035047.html
p567
aV/e/ellie+goulding/not+following+you_20896389.html
p568
asg64
S'ellie+goulding'
p569
sa(dp570
g2
(lp571
V/r/rihanna/
p572
aV/r/rihanna/a+child+is+born_20897863.html
p573
aV/r/rihanna/a+girl+like+me_20409523.html
p574
aV/r/rihanna/afterparty_20901270.html
p575
aV/r/rihanna/american+oxygen_21096458.html
p576
aV/r/rihanna/baby+brown+eyes_21074024.html
p577
aV/r/rihanna/bad+girl_20778668.html
p578
aV/r/rihanna/birthday+cake_20988263.html
p579
aV/r/rihanna/bitch+better+have+my+money_21097058.html
p580
aV/r/rihanna/boom+boom_20558307.html
p581
aV/r/rihanna/break+it+off_20409483.html
p582
aV/r/rihanna/breakin+dishes_20421653.html
p583
aV/r/rihanna/california+king_20891857.html
p584
aV/r/rihanna/california+king+bed_20910592.html
p585
aV/r/rihanna/cheater_21048479.html
p586
aV/r/rihanna/cheers_20894225.html
p587
aV/r/rihanna/close+to+you_21106238.html
p588
aV/r/rihanna/cockiness_20988262.html
p589
aV/r/rihanna/cold+case+love_20861033.html
p590
aV/r/rihanna/complicated_20893794.html
p591
aV/r/rihanna/consideration_21106229.html
p592
aV/r/rihanna/control+me_20782187.html
p593
aV/r/rihanna/coulda+been+the+one_20477092.html
p594
aV/r/rihanna/crazy+little+thing+called+love_20409493.html
p595
aV/r/rihanna/cry_20600684.html
p596
aV/r/rihanna/dancing+in+the+dark_21096457.html
p597
aV/r/rihanna/dem+haters_20409463.html
p598
aV/r/rihanna/desperado_21106231.html
p599
aV/r/rihanna/diamonds_21046037.html
p600
aV/r/rihanna/disturbia_20745903.html
p601
aV/r/rihanna/do+ya+thing_20988271.html
p602
aV/r/rihanna/dont+even+try_20670674.html
p603
aV/r/rihanna/dont+stop+the+music_20421643.html
p604
aV/r/rihanna/drunk+on+love_20988265.html
p605
aV/r/rihanna/electricity_20889415.html
p606
aV/r/rihanna/emergency+room_20774470.html
p607
aV/r/rihanna/fading_20894033.html
p608
aV/r/rihanna/farewell_20988269.html
p609
aV/r/rihanna/final+goodbye_20409473.html
p610
aV/r/rihanna/fire+bomb_20861032.html
p611
aV/r/rihanna/first+place_21101093.html
p612
aV/r/rihanna/first+time_20773463.html
p613
aV/r/rihanna/fool+in+love_20988272.html
p614
aV/r/rihanna/four+evermore_20558306.html
p615
aV/r/rihanna/fourfiveseconds_21094165.html
p616
aV/r/rihanna/fresh+off+the+runway_21052616.html
p617
aV/r/rihanna/g4l_20861028.html
p618
aV/r/rihanna/game+over_20967953.html
p619
aV/r/rihanna/get+it+over+with_21050292.html
p620
aV/r/rihanna/golden+girl_20757540.html
p621
aV/r/rihanna/good+girl+gone+bad_20421703.html
p622
aV/r/rihanna/half+of+me_21050289.html
p623
aV/r/rihanna/hallucination_20782135.html
p624
aV/r/rihanna/happy_20718113.html
p625
aV/r/rihanna/hard_20859597.html
p626
aV/r/rihanna/hate+that+i+love+you_20417853.html
p627
aV/r/rihanna/hatin+on+the+club_20778420.html
p628
aV/r/rihanna/haunted_20600685.html
p629
aV/r/rihanna/head_20986340.html
p630
aV/r/rihanna/here+i+go+again_20409303.html
p631
asg64
S'rihanna'
p632
sa(dp633
g2
(lp634
V/c/coldplay/136_20512674.html
p635
aV/c/coldplay/2000+miles_20150034.html
p636
aV/c/coldplay/42_20745803.html
p637
aV/c/coldplay/a+head+full+of+dreams_21104535.html
p638
aV/c/coldplay/a+message_10069044.html
p639
aV/c/coldplay/a+rush+of+blood+to+the+head_20032621.html
p640
aV/c/coldplay/a+sky+full+of+stars_21080656.html
p641
aV/c/coldplay/a+spell+a+rebel+yell_20743702.html
p642
aV/c/coldplay/a+whisper_20032622.html
p643
aV/c/coldplay/adventure+of+a+lifetime_21103976.html
p644
aV/c/coldplay/all+your+friends_21083613.html
p645
aV/c/coldplay/always+in+my+head_21079525.html
p646
aV/c/coldplay/amazing+day_21103036.html
p647
aV/c/coldplay/amsterdam_20032623.html
p648
aV/c/coldplay/animals_20278680.html
p649
aV/c/coldplay/anothers+arms_21079526.html
p650
aV/c/coldplay/army+of+one_21104531.html
p651
aV/c/coldplay/atlas_21067024.html
p652
aV/c/coldplay/bigger+stronger_20032648.html
p653
aV/c/coldplay/birds_21104529.html
p654
aV/c/coldplay/bright+new+dawn_20589819.html
p655
aV/c/coldplay/brothers+and+sisters_20589818.html
p656
aV/c/coldplay/careful+where+you+stand_20032653.html
p657
aV/c/coldplay/cemeteries+of+london_20746056.html
p658
aV/c/coldplay/cemeteries+of+london+spanish+lyrics_20967340.html
p659
aV/c/coldplay/charlie+brown_20914773.html
p660
aV/c/coldplay/chinese+sleep+chant_20746197.html
p661
aV/c/coldplay/christmas+lights_20896676.html
p662
aV/c/coldplay/clocks_20032624.html
p663
aV/c/coldplay/colour+spectrum_21105122.html
p664
aV/c/coldplay/crests+of+waves_20177150.html
p665
aV/c/coldplay/daylight_20032625.html
p666
aV/c/coldplay/death+and+all+his+friends_20746053.html
p667
aV/c/coldplay/death+will+never+conquer_20748655.html
p668
aV/c/coldplay/dont+let+it+break+your+heart_20983394.html
p669
aV/c/coldplay/dont+panic_20032637.html
p670
aV/c/coldplay/easy+to+please_20032654.html
p671
aV/c/coldplay/everglow_21104546.html
p672
aV/c/coldplay/every+teardrop+is+a+waterfall_20913594.html
p673
aV/c/coldplay/everythings+not+lost_20032638.html
p674
aV/c/coldplay/fix+you_10069035.html
p675
aV/c/coldplay/for+you_20032655.html
p676
aV/c/coldplay/fun_21104545.html
p677
aV/c/coldplay/ghost+story_21083666.html
p678
aV/c/coldplay/glass+of+water_20766267.html
p679
aV/c/coldplay/god+put+a+smile+upon+your+face_20032626.html
p680
aV/c/coldplay/gold+in+them+hills_20205365.html
p681
aV/c/coldplay/gravity_20209071.html
p682
aV/c/coldplay/green+eyes_20032627.html
p683
aV/c/coldplay/harmless_20218871.html
p684
aV/c/coldplay/have+yourself+a+merry+little+christmas_20222050.html
p685
aV/c/coldplay/help+is+round+the+corner_20032656.html
p686
aV/c/coldplay/high+speed_20032639.html
p687
aV/c/coldplay/how+you+see+the+world_10069055.html
p688
aV/c/coldplay/how+you+see+the+world+no2_20512671.html
p689
aV/c/coldplay/hunting+high+and+low_20217060.html
p690
aV/c/coldplay/hurts+like+heaven_20916388.html
p691
aV/c/coldplay/hymn+for+the+weekend_21104544.html
p692
aV/c/coldplay/i+bloom+blaum_20032628.html
p693
aV/c/coldplay/i+ran+away_20308952.html
p694
asg64
S'coldplay'
p695
sa(dp696
g2
(lp697
V/b/beatles/1822_20715201.html
p698
aV/b/beatles/a+day+in+the+life_10026556.html
p699
aV/b/beatles/a+hard+days+night_10026465.html
p700
aV/b/beatles/a+little+rhyme_20679608.html
p701
aV/b/beatles/a+shot+of+rhythm+blues_20014867.html
p702
aV/b/beatles/a+taste+of+honey_10026343.html
p703
aV/b/beatles/across+the+universe_10026507.html
p704
aV/b/beatles/act+naturally_10026198.html
p705
aV/b/beatles/aint+she+sweet_20014280.html
p706
aV/b/beatles/all+ive+got+to+do_10026646.html
p707
aV/b/beatles/all+my+loving_10026648.html
p708
aV/b/beatles/all+things+must+pass_20238479.html
p709
aV/b/beatles/all+together+now_10026695.html
p710
aV/b/beatles/all+you+need+is+love_10026698.html
p711
aV/b/beatles/and+i+love+her_10026463.html
p712
aV/b/beatles/and+your+bird+can+sing_10026364.html
p713
aV/b/beatles/anna+go+to+him_20652015.html
p714
aV/b/beatles/another+girl_10026200.html
p715
aV/b/beatles/any+time+at+all_10025891.html
p716
aV/b/beatles/ask+me+why_10025893.html
p717
aV/b/beatles/away+in+a+manger+hide+your+love+away_20350198.html
p718
aV/b/beatles/baby+its+you_10026344.html
p719
aV/b/beatles/baby+youre+a+rich+man_10026560.html
p720
aV/b/beatles/babys+in+black_10026360.html
p721
aV/b/beatles/back+in+the+ussr_10026511.html
p722
aV/b/beatles/bad+boy_10026293.html
p723
aV/b/beatles/bad+to+me_20152850.html
p724
aV/b/beatles/beatle+greetings_20679607.html
p725
aV/b/beatles/beatles+movie+medley_20162369.html
p726
aV/b/beatles/because_10025907.html
p727
aV/b/beatles/being+for+the+benefit+of+mr+kite_10026437.html
p728
aV/b/beatles/besame+mucho_20014283.html
p729
aV/b/beatles/birthday_10025908.html
p730
aV/b/beatles/blackbird_10025909.html
p731
aV/b/beatles/blue+jay+way_10026275.html
p732
aV/b/beatles/blue+suede+shoes_20155195.html
p733
aV/b/beatles/boys_10026345.html
p734
aV/b/beatles/can+you+take+me+back_20174331.html
p735
aV/b/beatles/cant+buy+me+love_10026466.html
p736
aV/b/beatles/carol_20014870.html
p737
aV/b/beatles/carry+that+weight_10025915.html
p738
aV/b/beatles/chains_10026347.html
p739
aV/b/beatles/child+of+nature_20165881.html
p740
aV/b/beatles/christmas+time_10026190.html
p741
aV/b/beatles/clarabella_20014871.html
p742
aV/b/beatles/cold+turkey_20168622.html
p743
aV/b/beatles/come+and+get+it_20170502.html
p744
aV/b/beatles/come+together_10026513.html
p745
aV/b/beatles/commonwealth_20170775.html
p746
aV/b/beatles/crinsk+dee+night_20697375.html
p747
aV/b/beatles/cry+baby+cry_10025919.html
p748
aV/b/beatles/crying+waiting+hoping_20014872.html
p749
aV/b/beatles/day+tripper_10026467.html
p750
aV/b/beatles/dear+prudence_10025923.html
p751
aV/b/beatles/dear+wack_20189513.html
p752
aV/b/beatles/devil+in+her+heart_10026650.html
p753
aV/b/beatles/dig+a+pony_10026255.html
p754
aV/b/beatles/dig+it_10026256.html
p755
aV/b/beatles/dizzy+miss+lizzy_20014994.html
p756
aV/b/beatles/do+you+want+to+know+a+secret_10026348.html
p757
asg64
S'beatles'
p758
sa(dp759
g2
(lp760
V/a/ariana+grande/all+my+love_21089987.html
p761
aV/a/ariana+grande/almost+is+never+enough_21065690.html
p762
aV/a/ariana+grande/baby+i_21065398.html
p763
aV/a/ariana+grande/bad+decisions_21108780.html
p764
aV/a/ariana+grande/be+alright_21107276.html
p765
aV/a/ariana+grande/be+my+baby_21086379.html
p766
aV/a/ariana+grande/best+mistake_21085652.html
p767
aV/a/ariana+grande/better+left+unsaid_21066956.html
p768
aV/a/ariana+grande/born+this+wayexpress+yourself+mash+up_20911315.html
p769
aV/a/ariana+grande/boyfriend+material_21059745.html
p770
aV/a/ariana+grande/break+free_21085384.html
p771
aV/a/ariana+grande/break+your+heart+right+back_21087111.html
p772
aV/a/ariana+grande/cadillac+song_21087184.html
p773
aV/a/ariana+grande/dangerous+woman_21107231.html
p774
aV/a/ariana+grande/daydreamin_21061706.html
p775
aV/a/ariana+grande/december_21105129.html
p776
aV/a/ariana+grande/die+in+your+arms_21031515.html
p777
aV/a/ariana+grande/direct+contact_21066591.html
p778
aV/a/ariana+grande/do+you+love+me_21020501.html
p779
aV/a/ariana+grande/everyday_21108777.html
p780
aV/a/ariana+grande/focus_21103754.html
p781
aV/a/ariana+grande/give+it+up_20979866.html
p782
aV/a/ariana+grande/greedy_21108776.html
p783
aV/a/ariana+grande/grenade_21073393.html
p784
aV/a/ariana+grande/hands+on+me_21094998.html
p785
aV/a/ariana+grande/hide+seek_20995877.html
p786
aV/a/ariana+grande/higher_20979966.html
p787
aV/a/ariana+grande/honeymoon+avenue_20996813.html
p788
aV/a/ariana+grande/i+believe+in+you+me_21061539.html
p789
aV/a/ariana+grande/i+dont+care_21108779.html
p790
aV/a/ariana+grande/into+you_21108447.html
p791
aV/a/ariana+grande/intro+christmas+chill_21105127.html
p792
aV/a/ariana+grande/jasons+song+gave+it+away_21108785.html
p793
aV/a/ariana+grande/just+a+little+bit+of+your+heart_21087113.html
p794
aV/a/ariana+grande/knew+better+forever+boy_21108782.html
p795
aV/a/ariana+grande/lady+marmalade_20982886.html
p796
aV/a/ariana+grande/last+christmas_21072124.html
p797
aV/a/ariana+grande/leave+me+lonely_21108266.html
p798
aV/a/ariana+grande/let+me+love+you_21108278.html
p799
aV/a/ariana+grande/love+is+everything_21072737.html
p800
aV/a/ariana+grande/love+me+harder_21086582.html
p801
aV/a/ariana+grande/love+the+way+you+lie_20979639.html
p802
aV/a/ariana+grande/lovin+it_21066589.html
p803
aV/a/ariana+grande/me+you+together_20988252.html
p804
aV/a/ariana+grande/moonlight_21108774.html
p805
aV/a/ariana+grande/my+everything_21085846.html
p806
aV/a/ariana+grande/my+piano_21066585.html
p807
aV/a/ariana+grande/not+just+on+christmas_21105130.html
p808
aV/a/ariana+grande/one+last+time_21087112.html
p809
aV/a/ariana+grande/only+1_21087274.html
p810
aV/a/ariana+grande/pink+champagne_21010018.html
p811
aV/a/ariana+grande/problem_21082070.html
p812
aV/a/ariana+grande/put+your+hearts+up_20987716.html
p813
aV/a/ariana+grande/right+there_21066588.html
p814
aV/a/ariana+grande/rolling+in+the+deep_20980981.html
p815
aV/a/ariana+grande/santa+tell+me_21090745.html
p816
aV/a/ariana+grande/side+to+side_21108775.html
p817
aV/a/ariana+grande/snow+in+california_21073040.html
p818
aV/a/ariana+grande/sometimes_21108778.html
p819
aV/a/ariana+grande/step+on+up_21108784.html
p820
asg64
S'ariana+grande'
p821
sa(dp822
g2
(lp823
V/m/miley+cyrus/
p824
aV/m/miley+cyrus/1+in+amillon_21037655.html
p825
aV/m/miley+cyrus/1+sun_21102758.html
p826
aV/m/miley+cyrus/23_21065817.html
p827
aV/m/miley+cyrus/2+weeks_20751794.html
p828
aV/m/miley+cyrus/4+x+4_21067246.html
p829
aV/m/miley+cyrus/7+things_20741861.html
p830
aV/m/miley+cyrus/adore_21067855.html
p831
aV/m/miley+cyrus/adore+you_21068308.html
p832
aV/m/miley+cyrus/aint+worried+about+nothing+remix+lyrics_21070491.html
p833
aV/m/miley+cyrus/all+i+want+for+christmas+is+you_20771763.html
p834
aV/m/miley+cyrus/all+the+time_20752674.html
p835
aV/m/miley+cyrus/are+you+ready_20892400.html
p836
aV/m/miley+cyrus/as+i+am_20598806.html
p837
aV/m/miley+cyrus/baby+im+in+the+mood+for+you_21110682.html
p838
aV/m/miley+cyrus/back+fall_20908901.html
p839
aV/m/miley+cyrus/bang+me+box_21102747.html
p840
aV/m/miley+cyrus/bb+talk_21102745.html
p841
aV/m/miley+cyrus/beautiful_20752675.html
p842
aV/m/miley+cyrus/been+here+all+along_20886389.html
p843
aV/m/miley+cyrus/before+the+storm_20849043.html
p844
aV/m/miley+cyrus/best+of+both+worlds_20647345.html
p845
aV/m/miley+cyrus/bigger+than+us_20647346.html
p846
aV/m/miley+cyrus/bottom+of+the+ocean_20749185.html
p847
aV/m/miley+cyrus/breakout_20741953.html
p848
aV/m/miley+cyrus/built+like+that_21015747.html
p849
aV/m/miley+cyrus/burned+up+the+night_20917880.html
p850
aV/m/miley+cyrus/butterfly+fly+away_20787745.html
p851
aV/m/miley+cyrus/cant+be+tamed_20879952.html
p852
aV/m/miley+cyrus/charmed+kozaks+life_21002998.html
p853
aV/m/miley+cyrus/chill_20767691.html
p854
aV/m/miley+cyrus/clear_20544651.html
p855
aV/m/miley+cyrus/closet+full+of+clothes_20751795.html
p856
aV/m/miley+cyrus/crazier_20880025.html
p857
aV/m/miley+cyrus/crazy_21096576.html
p858
aV/m/miley+cyrus/cyrus+skies_21102749.html
p859
aV/m/miley+cyrus/d+is+for+dangerous_21067635.html
p860
aV/m/miley+cyrus/dancing_20752676.html
p861
aV/m/miley+cyrus/decisions_21036846.html
p862
aV/m/miley+cyrus/do+my+thang_21067854.html
p863
aV/m/miley+cyrus/do+to+you_20752672.html
p864
aV/m/miley+cyrus/dont+walk+away_20740046.html
p865
aV/m/miley+cyrus/dont+want+to+be+torn_20880024.html
p866
aV/m/miley+cyrus/dooo+it_21102739.html
p867
aV/m/miley+cyrus/double+life_20647349.html
p868
aV/m/miley+cyrus/dream_20789815.html
p869
aV/m/miley+cyrus/drive_21068313.html
p870
aV/m/miley+cyrus/driveway+feat+noah+cyrus_20745958.html
p871
aV/m/miley+cyrus/east+northumberland+high_20599655.html
p872
aV/m/miley+cyrus/every+day_20647348.html
p873
aV/m/miley+cyrus/every+part+of+me_20879656.html
p874
aV/m/miley+cyrus/every+rose+has+its+thorn_20884841.html
p875
aV/m/miley+cyrus/evil+is+but+a+shadow_21102757.html
p876
aV/m/miley+cyrus/find+your+self+in+you_20647350.html
p877
aV/m/miley+cyrus/fly+on+the+wall_20746286.html
p878
aV/m/miley+cyrus/forgiveness+and+love_20680850.html
p879
aV/m/miley+cyrus/fu_21068314.html
p880
aV/m/miley+cyrus/fuckin+fucked+up_21102744.html
p881
aV/m/miley+cyrus/full+circle_20739736.html
p882
aV/m/miley+cyrus/fun_21084433.html
p883
asg64
S'miley+cyrus'
p884
sa(dp885
g2
(lp886
V/b/bruno+mars/
p887
aV/b/bruno+mars/24k+magic_21111370.html
p888
aV/b/bruno+mars/3d_21050828.html
p889
aV/b/bruno+mars/again_20883222.html
p890
aV/b/bruno+mars/all+about+you_20887728.html
p891
aV/b/bruno+mars/all+i+need_20996972.html
p892
aV/b/bruno+mars/all+she+knows_20887729.html
p893
aV/b/bruno+mars/before+it+explodes_20912120.html
p894
aV/b/bruno+mars/billionaire_20977820.html
p895
aV/b/bruno+mars/bulletproof_20897687.html
p896
aV/b/bruno+mars/california+girls_20901283.html
p897
aV/b/bruno+mars/chunky_21111490.html
p898
aV/b/bruno+mars/circles_20898395.html
p899
aV/b/bruno+mars/click+clack+away_20910354.html
p900
aV/b/bruno+mars/count+on+me_20883220.html
p901
aV/b/bruno+mars/dance+in+the+mirror_20603692.html
p902
aV/b/bruno+mars/dont+give+up_20989970.html
p903
aV/b/bruno+mars/dreamtaker_20897712.html
p904
aV/b/bruno+mars/faded_20889299.html
p905
aV/b/bruno+mars/first+time_21011655.html
p906
aV/b/bruno+mars/freedom_21050833.html
p907
aV/b/bruno+mars/girl+i+wait_20910858.html
p908
aV/b/bruno+mars/girl+in+the+window_20908796.html
p909
aV/b/bruno+mars/gold_20899116.html
p910
aV/b/bruno+mars/gorilla_21048075.html
p911
aV/b/bruno+mars/grenade_20889922.html
p912
aV/b/bruno+mars/her+world+goes+on_20457312.html
p913
aV/b/bruno+mars/if+i+knew_21048082.html
p914
aV/b/bruno+mars/innocent_21050826.html
p915
aV/b/bruno+mars/it+will+rain_20984444.html
p916
aV/b/bruno+mars/just+the+way+you+are_20555485.html
p917
aV/b/bruno+mars/killa+on+tha+run_20457311.html
p918
aV/b/bruno+mars/ladies+is+pimps+to_20914974.html
p919
aV/b/bruno+mars/lights_20912285.html
p920
aV/b/bruno+mars/like+tonight_20898377.html
p921
aV/b/bruno+mars/liquor+store+blues_20890846.html
p922
aV/b/bruno+mars/locked+out+of+heaven_21047901.html
p923
aV/b/bruno+mars/long+distance_20890232.html
p924
aV/b/bruno+mars/lost_20895495.html
p925
aV/b/bruno+mars/love_20911213.html
p926
aV/b/bruno+mars/madly+in+love+with+you_20902698.html
p927
aV/b/bruno+mars/mamas+worst+nightmare_20895533.html
p928
aV/b/bruno+mars/marry+you_20892511.html
p929
aV/b/bruno+mars/money+makes+her+smile_21048080.html
p930
aV/b/bruno+mars/moonshine_21048079.html
p931
aV/b/bruno+mars/more+today+than+yesterday_20910328.html
p932
aV/b/bruno+mars/move+on_20462711.html
p933
aV/b/bruno+mars/natalie_21048077.html
p934
aV/b/bruno+mars/never+say+u+cant_20893965.html
p935
aV/b/bruno+mars/nothin+on+you_21102951.html
p936
aV/b/bruno+mars/old+crazy_21052333.html
p937
aV/b/bruno+mars/on+fire_20901346.html
p938
aV/b/bruno+mars/only+when+youre+lonely_20887727.html
p939
aV/b/bruno+mars/our+first+time_20885010.html
p940
aV/b/bruno+mars/phantom+planet_21050827.html
p941
aV/b/bruno+mars/press+it_20911212.html
p942
aV/b/bruno+mars/rest_20908630.html
p943
aV/b/bruno+mars/runaway_20825145.html
p944
aV/b/bruno+mars/runaway+baby_20891145.html
p945
aV/b/bruno+mars/she+got+me_20905294.html
p946
asg64
S'bruno+mars'
p947
sa.