(lp0
S'far'
p1
aS'see'
p2
aS'time'
p3
aS'circuitry'
p4
aS'wrong'
p5
aS'far'
p6
aS'poetry'
p7
aS'sit'
p8
aS'sing'
p9
aS'song'
p10
aS'itscos'
p11
aS'want'
p12
aS'world'
p13
aS'want'
p14
aS'world'
p15
aS'come'
p16
aS'home'
p17
aS'spell'
p18
aS'rebel'
p19
aS'yell'
p20
aS'spell'
p21
aS'soldier'
p22
aS'come'
p23
aS'home'
p24
aS'youve'
p25
aS'away'
p26
aS'long'
p27
aS'want'
p28
aS'world'
p29
aS'want'
p30
aS'deserve'
p31
aS'come'
p32
aS'home'
p33
aS'spell'
p34
aS'rebel'
p35
aS'yell'
p36
aS'8x'
p37
a.