(lp0
S'heard'
p1
aS'say'
p2
aS'got'
p3
aS'getaway'
p4
aS'im'
p5
aS'second'
p6
aS'trail'
p7
aS'clear'
p8
aS'crystal'
p9
aS'harmless'
p10
aS'couldnt'
p11
aS'hurt'
p12
aS'oh'
p13
aS'helpless'
p14
aS'know'
p15
aS'youll'
p16
aS'get'
p17
a.